; Function Attrs: nofree norecurse nosync nounwind memory(readwrite, inaccessiblemem: none) uwtable
define internal range(i64 -1, 2) i64 @cp950_encode(ptr readnone captures(none) %0, ptr readnone captures(none) %1, i32 noundef %2, ptr noundef readonly captures(none) %3, ptr noundef captures(none) %4, i64 noundef %5, ptr noundef captures(none) %6, i64 noundef %7, i32 %8) #6 {
  %10 = load i64, ptr %4, align 8, !tbaa !48
  %11 = icmp slt i64 %10, %5
  br i1 %11, label %.lr.ph, label %.thread

.lr.ph:                                           ; preds = %9, %77
  %12 = phi i64 [ %79, %77 ], [ %10, %9 ]
  %.04063 = phi i64 [ %82, %77 ], [ %7, %9 ]
  switch i32 %2, label %21 [
    i32 1, label %13
    i32 2, label %17
  ]

13:                                               ; preds = %.lr.ph
  %14 = getelementptr i8, ptr %3, i64 %12
  %15 = load i8, ptr %14, align 1, !tbaa !34
  %16 = zext i8 %15 to i32
  br label %PyUnicode_READ.exit

17:                                               ; preds = %.lr.ph
  %18 = getelementptr i16, ptr %3, i64 %12
  %19 = load i16, ptr %18, align 2, !tbaa !49
  %20 = zext i16 %19 to i32
  br label %PyUnicode_READ.exit

21:                                               ; preds = %.lr.ph
  %22 = getelementptr i32, ptr %3, i64 %12
  %23 = load i32, ptr %22, align 4, !tbaa !50
  br label %PyUnicode_READ.exit

PyUnicode_READ.exit:                              ; preds = %13, %17, %21
  %.0.i = phi i32 [ %16, %13 ], [ %20, %17 ], [ %23, %21 ]
  %24 = icmp ult i32 %.0.i, 128
  br i1 %24, label %25, label %30

25:                                               ; preds = %PyUnicode_READ.exit
  %26 = icmp slt i64 %.04063, 1
  br i1 %26, label %.thread, label %27

27:                                               ; preds = %25
  %28 = trunc nuw nsw i32 %.0.i to i8
  %29 = load ptr, ptr %6, align 8, !tbaa !37
  store i8 %28, ptr %29, align 1, !tbaa !34
  br label %77, !llvm.loop !62

30:                                               ; preds = %PyUnicode_READ.exit
  %31 = icmp ugt i32 %.0.i, 65535
  br i1 %31, label %.thread, label %32

32:                                               ; preds = %30
  %33 = icmp slt i64 %.04063, 2
  br i1 %33, label %.thread, label %34

34:                                               ; preds = %32
  %35 = lshr i32 %.0.i, 8
  %36 = zext nneg i32 %35 to i64
  %37 = getelementptr [256 x %struct.unim_index], ptr @cp950ext_encmap, i64 0, i64 %36
  %38 = load ptr, ptr %37, align 16, !tbaa !52
  %.not = icmp eq ptr %38, null
  br i1 %.not, label %53, label %39

39:                                               ; preds = %34
  %40 = and i32 %.0.i, 255
  %41 = getelementptr inbounds nuw i8, ptr %37, i64 8
  %42 = load i8, ptr %41, align 8, !tbaa !55
  %43 = zext i8 %42 to i32
  %.not51 = icmp samesign ult i32 %40, %43
  br i1 %.not51, label %53, label %44

44:                                               ; preds = %39
  %45 = getelementptr inbounds nuw i8, ptr %37, i64 9
  %46 = load i8, ptr %45, align 1, !tbaa !56
  %47 = zext i8 %46 to i32
  %.not52 = icmp samesign ugt i32 %40, %47
  br i1 %.not52, label %53, label %48

48:                                               ; preds = %44
  %49 = sub nsw i32 %40, %43
  %50 = zext i32 %49 to i64
  %51 = getelementptr i16, ptr %38, i64 %50
  %52 = load i16, ptr %51, align 2, !tbaa !49
  %.not53 = icmp eq i16 %52, -1
  br i1 %.not53, label %53, label %70

53:                                               ; preds = %48, %44, %39, %34
  %54 = getelementptr [256 x %struct.unim_index], ptr @big5_encmap, i64 0, i64 %36
  %55 = load ptr, ptr %54, align 16, !tbaa !52
  %.not54 = icmp eq ptr %55, null
  br i1 %.not54, label %.thread, label %56

56:                                               ; preds = %53
  %57 = and i32 %.0.i, 255
  %58 = getelementptr inbounds nuw i8, ptr %54, i64 8
  %59 = load i8, ptr %58, align 8, !tbaa !55
  %60 = zext i8 %59 to i32
  %.not55 = icmp samesign ult i32 %57, %60
  br i1 %.not55, label %.thread, label %61

61:                                               ; preds = %56
  %62 = getelementptr inbounds nuw i8, ptr %54, i64 9
  %63 = load i8, ptr %62, align 1, !tbaa !56
  %64 = zext i8 %63 to i32
  %.not56 = icmp samesign ugt i32 %57, %64
  br i1 %.not56, label %.thread, label %65

65:                                               ; preds = %61
  %66 = sub nsw i32 %57, %60
  %67 = zext i32 %66 to i64
  %68 = getelementptr i16, ptr %55, i64 %67
  %69 = load i16, ptr %68, align 2, !tbaa !49
  %.not57 = icmp eq i16 %69, -1
  br i1 %.not57, label %.thread, label %70

70:                                               ; preds = %48, %65
  %.038 = phi i16 [ %52, %48 ], [ %69, %65 ]
  %71 = lshr i16 %.038, 8
  %72 = trunc nuw i16 %71 to i8
  %73 = load ptr, ptr %6, align 8, !tbaa !37
  store i8 %72, ptr %73, align 1, !tbaa !34
  %74 = trunc i16 %.038 to i8
  %75 = load ptr, ptr %6, align 8, !tbaa !37
  %76 = getelementptr i8, ptr %75, i64 1
  store i8 %74, ptr %76, align 1, !tbaa !34
  br label %77

77:                                               ; preds = %70, %27
  %.sink80 = phi i64 [ 2, %70 ], [ 1, %27 ]
  %.sink = phi i64 [ -2, %70 ], [ -1, %27 ]
  %78 = load i64, ptr %4, align 8, !tbaa !48
  %79 = add i64 %78, 1
  store i64 %79, ptr %4, align 8, !tbaa !48
  %80 = load ptr, ptr %6, align 8, !tbaa !37
  %81 = getelementptr i8, ptr %80, i64 %.sink80
  store ptr %81, ptr %6, align 8, !tbaa !37
  %82 = add nsw i64 %.04063, %.sink
  %83 = icmp slt i64 %79, %5
  br i1 %83, label %.lr.ph, label %.thread

.thread:                                          ; preds = %77, %25, %30, %32, %65, %61, %56, %53, %9
  %.2 = phi i64 [ 0, %9 ], [ 1, %53 ], [ 1, %56 ], [ 1, %61 ], [ 1, %65 ], [ -1, %32 ], [ 1, %30 ], [ -1, %25 ], [ 0, %77 ]
  ret i64 %.2
}